; Function Attrs: mustprogress nounwind uwtable
define internal fastcc void @_ZNSt8_Rb_treeIPKN4llvm15FunctionSummaryESt4pairIKS3_N12_GLOBAL__N_112FunctionInfoIS1_EEESt10_Select1stIS9_ESt4lessIS3_ESaIS9_EE8_M_eraseEPSt13_Rb_tree_nodeIS9_E(ptr noundef %0) unnamed_addr #0 align 2 {
  %.not1 = icmp eq ptr %0, null
  br i1 %.not1, label %._crit_edge, label %.lr.ph

.lr.ph:                                           ; preds = %1, %.lr.ph
  %.02 = phi ptr [ %.0.val, %.lr.ph ], [ %0, %1 ]
  %2 = getelementptr i8, ptr %.02, i64 24
  %.0.val6 = load ptr, ptr %2, align 8
  tail call fastcc void @_ZNSt8_Rb_treeIPKN4llvm15FunctionSummaryESt4pairIKS3_N12_GLOBAL__N_112FunctionInfoIS1_EEESt10_Select1stIS9_ESt4lessIS3_ESaIS9_EE8_M_eraseEPSt13_Rb_tree_nodeIS9_E(ptr noundef %.0.val6)
  %3 = getelementptr i8, ptr %.02, i64 16
  %.0.val = load ptr, ptr %3, align 8
  %4 = getelementptr inbounds nuw i8, ptr %.02, i64 104
  %.val.i.i.i.i.i.i = load ptr, ptr %4, align 8
  tail call fastcc void @_ZNSt8_Rb_treeIjSt4pairIKjN12_GLOBAL__N_17UseInfoIN4llvm15FunctionSummaryEEEESt10_Select1stIS7_ESt4lessIjESaIS7_EE8_M_eraseEPSt13_Rb_tree_nodeIS7_E(ptr noundef %.val.i.i.i.i.i.i)
  %5 = getelementptr inbounds nuw i8, ptr %.02, i64 56
  %.val1.i.i.i.i.i.i = load ptr, ptr %5, align 8
  tail call fastcc void @_ZNSt8_Rb_treeIPKN4llvm10AllocaInstESt4pairIKS3_N12_GLOBAL__N_17UseInfoINS0_15FunctionSummaryEEEESt10_Select1stISA_ESt4lessIS3_ESaISA_EE8_M_eraseEPSt13_Rb_tree_nodeISA_E(ptr noundef %.val1.i.i.i.i.i.i)
  tail call void @_ZdlPvm(ptr noundef nonnull %.02, i64 noundef 144) #26
  %.not = icmp eq ptr %.0.val, null
  br i1 %.not, label %._crit_edge, label %.lr.ph, !llvm.loop !172

._crit_edge:                                      ; preds = %.lr.ph, %1
  ret void
}